; ModuleID = 'bench/linux/original/debugfs.ll'
source_filename = "bench/linux/original/debugfs.ll"
target datalayout = "e-m:e-p270:32:32-p271:32:32-p272:64:64-i64:64-i128:128-f80:128-n8:16:32:64-S128"
target triple = "x86_64-unknown-linux-gnu"

module asm ".section\09\22.initcall7.init\22, \22a\22\09\09"
module asm "__initcall__kmod_debugfs__329_58_cpu_init_debugfs7:\09\09\09"
module asm ".long\09cpu_init_debugfs - .\09"
module asm ".previous\09\09\09\09\09"

%struct.cpumask = type { [1 x i64] }
%struct.file_operations = type { ptr, ptr, ptr, ptr, ptr, ptr, ptr, ptr, ptr, ptr, ptr, ptr, i64, ptr, ptr, ptr, ptr, ptr, ptr, ptr, ptr, ptr, ptr, ptr, ptr, ptr, ptr, ptr, ptr, ptr, ptr, ptr, ptr }
%struct.cpuinfo_x86 = type { i8, i8, i8, i8, i32, [5 x i32], i8, i8, i8, i32, i32, %union.anon.6, [16 x i8], [64 x i8], %struct.cpuinfo_topology, i32, i32, i32, i32, i32, i32, i64, i64, i16, i16, i16, i16, i8, i32, i8, i8 }
%union.anon.6 = type { i64, [88 x i8] }
%struct.cpuinfo_topology = type { i32, i32, i32, i32, i32, i32, i32, i32, i32, i32 }

@__UNIQUE_ID___addressable_cpu_init_debugfs330 = internal global ptr @cpu_init_debugfs, section ".discard.addressable", align 8
@.str = private unnamed_addr constant [5 x i8] c"topo\00", align 1
@arch_debugfs_dir = external dso_local local_unnamed_addr global ptr, align 8
@.str.1 = private unnamed_addr constant [5 x i8] c"cpus\00", align 1
@__cpu_possible_mask = external dso_local local_unnamed_addr global %struct.cpumask, align 8
@.str.2 = private unnamed_addr constant [4 x i8] c"%lu\00", align 1
@dfs_cpu_ops = internal constant %struct.file_operations { ptr null, ptr @seq_lseek, ptr @seq_read, ptr null, ptr null, ptr null, ptr null, ptr null, ptr null, ptr null, ptr null, ptr null, i64 0, ptr @cpu_debug_open, ptr null, ptr @single_release, ptr null, ptr null, ptr null, ptr null, ptr null, ptr null, ptr null, ptr null, ptr null, ptr null, ptr null, ptr null, ptr null, ptr null, ptr null, ptr null, ptr null }, align 8
@cpu_info = external dso_local global %struct.cpuinfo_x86, section ".data..percpu..read_mostly", align 8
@__per_cpu_offset = external dso_local local_unnamed_addr global [64 x i64], align 16
@.str.3 = private unnamed_addr constant [25 x i8] c"online:              %d\0A\00", align 1
@.str.4 = private unnamed_addr constant [25 x i8] c"initial_apicid:      %x\0A\00", align 1
@.str.5 = private unnamed_addr constant [25 x i8] c"apicid:              %x\0A\00", align 1
@.str.6 = private unnamed_addr constant [25 x i8] c"pkg_id:              %u\0A\00", align 1
@.str.7 = private unnamed_addr constant [25 x i8] c"die_id:              %u\0A\00", align 1
@.str.8 = private unnamed_addr constant [25 x i8] c"cu_id:               %u\0A\00", align 1
@.str.9 = private unnamed_addr constant [25 x i8] c"core_id:             %u\0A\00", align 1
@.str.10 = private unnamed_addr constant [25 x i8] c"logical_pkg_id:      %u\0A\00", align 1
@.str.11 = private unnamed_addr constant [25 x i8] c"logical_die_id:      %u\0A\00", align 1
@.str.12 = private unnamed_addr constant [25 x i8] c"llc_id:              %u\0A\00", align 1
@.str.13 = private unnamed_addr constant [25 x i8] c"l2c_id:              %u\0A\00", align 1
@.str.14 = private unnamed_addr constant [25 x i8] c"max_cores:           %u\0A\00", align 1
@.str.15 = private unnamed_addr constant [25 x i8] c"max_die_per_pkg:     %u\0A\00", align 1
@__max_die_per_package = external dso_local local_unnamed_addr global i32, align 4
@.str.16 = private unnamed_addr constant [25 x i8] c"smp_num_siblings:    %u\0A\00", align 1
@smp_num_siblings = external dso_local local_unnamed_addr global i32, align 4
@__cpu_online_mask = external dso_local global %struct.cpumask, align 8
@llvm.compiler.used = appending global [1 x ptr] [ptr @__UNIQUE_ID___addressable_cpu_init_debugfs330], section "llvm.metadata"

; Function Attrs: cold fn_ret_thunk_extern nounwind null_pointer_is_valid optsize
define internal noundef i32 @cpu_init_debugfs() #0 section ".init.text" align 16 {
  %1 = alloca [24 x i8], align 16
  %2 = load ptr, ptr @arch_debugfs_dir, align 8
  %3 = tail call ptr @debugfs_create_dir(ptr noundef nonnull @.str, ptr noundef %2) #7
  call void @llvm.lifetime.start.p0(i64 24, ptr nonnull %1) #7
  call void @llvm.memset.p0.i64(ptr noundef nonnull align 16 dereferenceable(24) %1, i8 0, i64 24, i1 false), !annotation !5
  %4 = tail call ptr @debugfs_create_dir(ptr noundef nonnull @.str.1, ptr noundef %3) #7
  br label %5

5:                                                ; preds = %0, %14
  %6 = phi i64 [ 0, %0 ], [ %18, %14 ]
  %7 = load i64, ptr @__cpu_possible_mask, align 8
  %8 = shl nsw i64 -1, %6
  %9 = and i64 %7, %8
  %10 = icmp eq i64 %9, 0
  br i1 %10, label %.thread, label %11

11:                                               ; preds = %5
  %12 = call i64 asm "rep; bsf $1,$0", "=r,rm,~{dirflag},~{fpsr},~{flags}"(i64 %9) #8, !srcloc !6
  %13 = icmp ult i64 %12, 64
  br i1 %13, label %14, label %.thread

14:                                               ; preds = %11
  %15 = call i32 (ptr, ptr, ...) @sprintf(ptr noundef nonnull dereferenceable(1) %1, ptr noundef nonnull dereferenceable(1) @.str.2, i64 noundef %12) #7
  %16 = inttoptr i64 %12 to ptr
  %17 = call ptr @debugfs_create_file(ptr noundef nonnull %1, i16 noundef zeroext 292, ptr noundef %4, ptr noundef %16, ptr noundef nonnull @dfs_cpu_ops) #7
  %18 = add nuw nsw i64 %12, 1
  %19 = icmp eq i64 %12, 63
  br i1 %19, label %.thread, label %5, !prof !7, !llvm.loop !8

.thread:                                          ; preds = %5, %14, %11
  call void @llvm.lifetime.end.p0(i64 24, ptr nonnull %1) #7
  ret i32 0
}

; Function Attrs: mustprogress nocallback nofree nosync nounwind willreturn memory(argmem: readwrite)
declare void @llvm.lifetime.start.p0(i64 immarg, ptr nocapture) #1

; Function Attrs: null_pointer_is_valid
declare dso_local ptr @debugfs_create_dir(ptr noundef, ptr noundef) local_unnamed_addr #2

; Function Attrs: mustprogress nocallback nofree nounwind willreturn memory(argmem: write)
declare void @llvm.memset.p0.i64(ptr nocapture writeonly, i8, i64, i1 immarg) #3

; Function Attrs: nofree nounwind null_pointer_is_valid
declare dso_local noundef i32 @sprintf(ptr noalias nocapture noundef writeonly, ptr nocapture noundef readonly, ...) local_unnamed_addr #4

; Function Attrs: null_pointer_is_valid
declare dso_local ptr @debugfs_create_file(ptr noundef, i16 noundef zeroext, ptr noundef, ptr noundef, ptr noundef) local_unnamed_addr #2

; Function Attrs: mustprogress nocallback nofree nosync nounwind willreturn memory(argmem: readwrite)
declare void @llvm.lifetime.end.p0(i64 immarg, ptr nocapture) #1

; Function Attrs: null_pointer_is_valid
declare dso_local i64 @seq_lseek(ptr noundef, i64 noundef, i32 noundef) #2

; Function Attrs: null_pointer_is_valid
declare dso_local i64 @seq_read(ptr noundef, ptr noundef, i64 noundef, ptr noundef) #2

; Function Attrs: fn_ret_thunk_extern nounwind null_pointer_is_valid
define internal i32 @cpu_debug_open(ptr nocapture noundef readonly %0, ptr noundef %1) #5 align 16 {
  %3 = getelementptr inbounds i8, ptr %0, i64 592
  %4 = load ptr, ptr %3, align 8
  %5 = tail call i32 @single_open(ptr noundef %1, ptr noundef nonnull @cpu_debug_show, ptr noundef %4) #7
  ret i32 %5
}

; Function Attrs: null_pointer_is_valid
declare dso_local i32 @single_release(ptr noundef, ptr noundef) #2

; Function Attrs: null_pointer_is_valid
declare dso_local i32 @single_open(ptr noundef, ptr noundef, ptr noundef) local_unnamed_addr #2

; Function Attrs: fn_ret_thunk_extern nounwind null_pointer_is_valid
define internal noundef i32 @cpu_debug_show(ptr noundef %0, ptr nocapture readnone %1) #5 align 16 {
  %3 = getelementptr inbounds i8, ptr %0, i64 112
  %4 = load ptr, ptr %3, align 8
  %5 = ptrtoint ptr %4 to i64
  %6 = getelementptr [64 x i64], ptr @__per_cpu_offset, i64 0, i64 %5
  %7 = load i64, ptr %6, align 8
  %8 = add i64 %7, ptrtoint (ptr @cpu_info to i64)
  %9 = inttoptr i64 %8 to ptr
  %10 = and i64 %5, 4294967295
  %11 = tail call i8 asm sideeffect " btq  $2,$1\0A\09/* output condition code c*/\0A", "={@ccc},*m,Ir,~{memory},~{dirflag},~{fpsr},~{flags}"(ptr nonnull elementtype(i64) @__cpu_online_mask, i64 %10) #7, !srcloc !11
  %12 = icmp ult i8 %11, 2
  tail call void @llvm.assume(i1 %12)
  %13 = zext nneg i8 %11 to i32
  tail call void (ptr, ptr, ...) @seq_printf(ptr noundef %0, ptr noundef nonnull @.str.3, i32 noundef %13) #7
  %14 = getelementptr inbounds i8, ptr %9, i64 313
  %15 = load i8, ptr %14, align 1
  %16 = and i8 %15, 1
  %17 = icmp eq i8 %16, 0
  br i1 %17, label %44, label %18

18:                                               ; preds = %2
  %19 = getelementptr inbounds i8, ptr %9, i64 216
  %20 = getelementptr inbounds i8, ptr %9, i64 220
  %21 = load i32, ptr %20, align 4
  tail call void (ptr, ptr, ...) @seq_printf(ptr noundef %0, ptr noundef nonnull @.str.4, i32 noundef %21) #7
  %22 = load i32, ptr %19, align 8
  tail call void (ptr, ptr, ...) @seq_printf(ptr noundef %0, ptr noundef nonnull @.str.5, i32 noundef %22) #7
  %23 = getelementptr inbounds i8, ptr %9, i64 224
  %24 = load i32, ptr %23, align 8
  tail call void (ptr, ptr, ...) @seq_printf(ptr noundef %0, ptr noundef nonnull @.str.6, i32 noundef %24) #7
  %25 = getelementptr inbounds i8, ptr %9, i64 228
  %26 = load i32, ptr %25, align 4
  tail call void (ptr, ptr, ...) @seq_printf(ptr noundef %0, ptr noundef nonnull @.str.7, i32 noundef %26) #7
  %27 = getelementptr inbounds i8, ptr %9, i64 232
  %28 = load i32, ptr %27, align 8
  tail call void (ptr, ptr, ...) @seq_printf(ptr noundef %0, ptr noundef nonnull @.str.8, i32 noundef %28) #7
  %29 = getelementptr inbounds i8, ptr %9, i64 236
  %30 = load i32, ptr %29, align 4
  tail call void (ptr, ptr, ...) @seq_printf(ptr noundef %0, ptr noundef nonnull @.str.9, i32 noundef %30) #7
  %31 = getelementptr inbounds i8, ptr %9, i64 240
  %32 = load i32, ptr %31, align 8
  tail call void (ptr, ptr, ...) @seq_printf(ptr noundef %0, ptr noundef nonnull @.str.10, i32 noundef %32) #7
  %33 = getelementptr inbounds i8, ptr %9, i64 244
  %34 = load i32, ptr %33, align 4
  tail call void (ptr, ptr, ...) @seq_printf(ptr noundef %0, ptr noundef nonnull @.str.11, i32 noundef %34) #7
  %35 = getelementptr inbounds i8, ptr %9, i64 248
  %36 = load i32, ptr %35, align 8
  tail call void (ptr, ptr, ...) @seq_printf(ptr noundef %0, ptr noundef nonnull @.str.12, i32 noundef %36) #7
  %37 = getelementptr inbounds i8, ptr %9, i64 252
  %38 = load i32, ptr %37, align 4
  tail call void (ptr, ptr, ...) @seq_printf(ptr noundef %0, ptr noundef nonnull @.str.13, i32 noundef %38) #7
  %39 = getelementptr inbounds i8, ptr %9, i64 296
  %40 = load i16, ptr %39, align 8
  %41 = zext i16 %40 to i32
  tail call void (ptr, ptr, ...) @seq_printf(ptr noundef %0, ptr noundef nonnull @.str.14, i32 noundef %41) #7
  %42 = load i32, ptr @__max_die_per_package, align 4
  tail call void (ptr, ptr, ...) @seq_printf(ptr noundef %0, ptr noundef nonnull @.str.15, i32 noundef %42) #7
  %43 = load i32, ptr @smp_num_siblings, align 4
  tail call void (ptr, ptr, ...) @seq_printf(ptr noundef %0, ptr noundef nonnull @.str.16, i32 noundef %43) #7
  br label %44

44:                                               ; preds = %18, %2
  ret i32 0
}

; Function Attrs: null_pointer_is_valid
declare dso_local void @seq_printf(ptr noundef, ptr noundef, ...) local_unnamed_addr #2

; Function Attrs: mustprogress nocallback nofree nosync nounwind willreturn memory(inaccessiblemem: write)
declare void @llvm.assume(i1 noundef) #6


!llvm.module.flags = !{!0, !1, !2, !3, !4}

!0 = !{i32 1, !"wchar_size", i32 2}
!1 = !{i32 8, !"cf-protection-branch", i32 1}
!2 = !{i32 4, !"function_return_thunk_extern", i32 1}
!3 = !{i32 4, !"indirect_branch_cs_prefix", i32 1}
!4 = !{i32 4, !"SkipRaxSetup", i32 1}
!5 = !{!"auto-init"}
!6 = !{i64 1070808}
!7 = !{!"branch_weights", i32 1, i32 1999}
!8 = distinct !{!8, !9, !10}
!9 = !{!"llvm.loop.mustprogress"}
!10 = !{!"llvm.loop.unroll.disable"}
!11 = !{i64 2148573115, i64 2148573189}
